target datalayout = "e-m:e-p270:32:32-p271:32:32-p272:64:64-i64:64-i128:128-f80:128-n8:16:32:64-S128"
target triple = "x86_64-pc-linux-gnu"

%struct.Maj3_Man_t_ = type { i32, i32, i32, i32, i32, ptr, ptr, [32 x [32 x i32]], [32 x i32], [2 x [32 x i32]], [3 x i32], ptr }
%struct.Vec_Wrd_t_ = type { i32, i32, ptr }

@s_Truths6 = internal global [6 x i64] [i64 -6148914691236517206, i64 -3689348814741910324, i64 -1085102592571150096, i64 -71777214294589696, i64 -281470681808896, i64 -4294967296], align 16

; Function Attrs: nounwind uwtable
define internal i32 @Abc_TtWordNum(i32 noundef %0) #0 {
  %2 = alloca i32, align 4
  store i32 %0, ptr %2, align 4
  %3 = load i32, ptr %2, align 4
  %4 = icmp sle i32 %3, 6
  br i1 %4, label %5, label %6

5:                                                ; preds = %1
  br label %10

6:                                                ; preds = %1
  %7 = load i32, ptr %2, align 4
  %8 = sub nsw i32 %7, 6
  %9 = shl i32 1, %8
  br label %10

10:                                               ; preds = %6, %5
  %11 = phi i32 [ 1, %5 ], [ %9, %6 ]
  ret i32 %11
}

; Function Attrs: nounwind uwtable
define internal ptr @Vec_WrdEntryP(ptr noundef %0, i32 noundef %1) #0 {
  %3 = alloca ptr, align 8
  %4 = alloca i32, align 4
  store ptr %0, ptr %3, align 8
  store i32 %1, ptr %4, align 4
  %5 = load ptr, ptr %3, align 8
  %6 = getelementptr inbounds %struct.Vec_Wrd_t_, ptr %5, i32 0, i32 2
  %7 = load ptr, ptr %6, align 8
  %8 = load i32, ptr %4, align 4
  %9 = sext i32 %8 to i64
  %10 = getelementptr inbounds i64, ptr %7, i64 %9
  ret ptr %10
}

; Function Attrs: nounwind uwtable
define internal ptr @Vec_WrdAlloc(i32 noundef %0) #0 {
  %2 = alloca i32, align 4
  %3 = alloca ptr, align 8
  store i32 %0, ptr %2, align 4
  %4 = call noalias ptr @malloc(i64 noundef 16) #12
  store ptr %4, ptr %3, align 8
  %5 = load i32, ptr %2, align 4
  %6 = icmp sgt i32 %5, 0
  br i1 %6, label %7, label %11

7:                                                ; preds = %1
  %8 = load i32, ptr %2, align 4
  %9 = icmp slt i32 %8, 16
  br i1 %9, label %10, label %11

10:                                               ; preds = %7
  store i32 16, ptr %2, align 4
  br label %11

11:                                               ; preds = %10, %7, %1
  %12 = load ptr, ptr %3, align 8
  %13 = getelementptr inbounds %struct.Vec_Wrd_t_, ptr %12, i32 0, i32 1
  store i32 0, ptr %13, align 4
  %14 = load i32, ptr %2, align 4
  %15 = load ptr, ptr %3, align 8
  %16 = getelementptr inbounds %struct.Vec_Wrd_t_, ptr %15, i32 0, i32 0
  store i32 %14, ptr %16, align 8
  %17 = load ptr, ptr %3, align 8
  %18 = getelementptr inbounds %struct.Vec_Wrd_t_, ptr %17, i32 0, i32 0
  %19 = load i32, ptr %18, align 8
  %20 = icmp ne i32 %19, 0
  br i1 %20, label %21, label %28

21:                                               ; preds = %11
  %22 = load ptr, ptr %3, align 8
  %23 = getelementptr inbounds %struct.Vec_Wrd_t_, ptr %22, i32 0, i32 0
  %24 = load i32, ptr %23, align 8
  %25 = sext i32 %24 to i64
  %26 = mul i64 8, %25
  %27 = call noalias ptr @malloc(i64 noundef %26) #12
  br label %29

28:                                               ; preds = %11
  br label %29

29:                                               ; preds = %28, %21
  %30 = phi ptr [ %27, %21 ], [ null, %28 ]
  %31 = load ptr, ptr %3, align 8
  %32 = getelementptr inbounds %struct.Vec_Wrd_t_, ptr %31, i32 0, i32 2
  store ptr %30, ptr %32, align 8
  %33 = load ptr, ptr %3, align 8
  ret ptr %33
}

; Function Attrs: nounwind uwtable
define internal void @Abc_TtSetBit(ptr noundef %0, i32 noundef %1) #0 {
  %3 = alloca ptr, align 8
  %4 = alloca i32, align 4
  store ptr %0, ptr %3, align 8
  store i32 %1, ptr %4, align 4
  %5 = load i32, ptr %4, align 4
  %6 = and i32 %5, 63
  %7 = zext i32 %6 to i64
  %8 = shl i64 1, %7
  %9 = load ptr, ptr %3, align 8
  %10 = load i32, ptr %4, align 4
  %11 = ashr i32 %10, 6
  %12 = sext i32 %11 to i64
  %13 = getelementptr inbounds i64, ptr %9, i64 %12
  %14 = load i64, ptr %13, align 8
  %15 = or i64 %14, %8
  store i64 %15, ptr %13, align 8
  ret void
}

; Function Attrs: nounwind uwtable
define internal i32 @Maj3_ManValue(i32 noundef %0, i32 noundef %1) #0 {
  %3 = alloca i32, align 4
  %4 = alloca i32, align 4
  %5 = alloca i32, align 4
  %6 = alloca i32, align 4
  store i32 %0, ptr %3, align 4
  store i32 %1, ptr %4, align 4
  store i32 0, ptr %6, align 4
  store i32 0, ptr %5, align 4
  br label %7

7:                                                ; preds = %18, %2
  %8 = load i32, ptr %5, align 4
  %9 = load i32, ptr %4, align 4
  %10 = icmp slt i32 %8, %9
  br i1 %10, label %11, label %21

11:                                               ; preds = %7
  %12 = load i32, ptr %3, align 4
  %13 = load i32, ptr %5, align 4
  %14 = ashr i32 %12, %13
  %15 = and i32 %14, 1
  %16 = load i32, ptr %6, align 4
  %17 = add nsw i32 %16, %15
  store i32 %17, ptr %6, align 4
  br label %18

18:                                               ; preds = %11
  %19 = load i32, ptr %5, align 4
  %20 = add nsw i32 %19, 1
  store i32 %20, ptr %5, align 4
  br label %7, !llvm.loop !9

21:                                               ; preds = %7
  %22 = load i32, ptr %6, align 4
  %23 = load i32, ptr %4, align 4
  %24 = sdiv i32 %23, 2
  %25 = icmp sgt i32 %22, %24
  %26 = zext i1 %25 to i32
  ret i32 %26
}

; Function Attrs: nounwind uwtable
define internal void @Abc_TtIthVar(ptr noundef %0, i32 noundef %1, i32 noundef %2) #0 {
  %4 = alloca ptr, align 8
  %5 = alloca i32, align 4
  %6 = alloca i32, align 4
  %7 = alloca i32, align 4
  %8 = alloca i32, align 4
  store ptr %0, ptr %4, align 8
  store i32 %1, ptr %5, align 4
  store i32 %2, ptr %6, align 4
  %9 = load i32, ptr %6, align 4
  %10 = call i32 @Abc_TtWordNum(i32 noundef %9)
  store i32 %10, ptr %8, align 4
  %11 = load i32, ptr %5, align 4
  %12 = icmp slt i32 %11, 6
  br i1 %12, label %13, label %31

13:                                               ; preds = %3
  store i32 0, ptr %7, align 4
  br label %14

14:                                               ; preds = %27, %13
  %15 = load i32, ptr %7, align 4
  %16 = load i32, ptr %8, align 4
  %17 = icmp slt i32 %15, %16
  br i1 %17, label %18, label %30

18:                                               ; preds = %14
  %19 = load i32, ptr %5, align 4
  %20 = sext i32 %19 to i64
  %21 = getelementptr inbounds [6 x i64], ptr @s_Truths6, i64 0, i64 %20
  %22 = load i64, ptr %21, align 8
  %23 = load ptr, ptr %4, align 8
  %24 = load i32, ptr %7, align 4
  %25 = sext i32 %24 to i64
  %26 = getelementptr inbounds i64, ptr %23, i64 %25
  store i64 %22, ptr %26, align 8
  br label %27

27:                                               ; preds = %18
  %28 = load i32, ptr %7, align 4
  %29 = add nsw i32 %28, 1
  store i32 %29, ptr %7, align 4
  br label %14, !llvm.loop !7

30:                                               ; preds = %14
  br label %58

31:                                               ; preds = %3
  store i32 0, ptr %7, align 4
  br label %32

32:                                               ; preds = %54, %31
  %33 = load i32, ptr %7, align 4
  %34 = load i32, ptr %8, align 4
  %35 = icmp slt i32 %33, %34
  br i1 %35, label %36, label %57

36:                                               ; preds = %32
  %37 = load i32, ptr %7, align 4
  %38 = load i32, ptr %5, align 4
  %39 = sub nsw i32 %38, 6
  %40 = shl i32 1, %39
  %41 = and i32 %37, %40
  %42 = icmp ne i32 %41, 0
  br i1 %42, label %43, label %48

43:                                               ; preds = %36
  %44 = load ptr, ptr %4, align 8
  %45 = load i32, ptr %7, align 4
  %46 = sext i32 %45 to i64
  %47 = getelementptr inbounds i64, ptr %44, i64 %46
  store i64 -1, ptr %47, align 8
  br label %53

48:                                               ; preds = %36
  %49 = load ptr, ptr %4, align 8
  %50 = load i32, ptr %7, align 4
  %51 = sext i32 %50 to i64
  %52 = getelementptr inbounds i64, ptr %49, i64 %51
  store i64 0, ptr %52, align 8
  br label %53

53:                                               ; preds = %48, %43
  br label %54

54:                                               ; preds = %53
  %55 = load i32, ptr %7, align 4
  %56 = add nsw i32 %55, 1
  store i32 %56, ptr %7, align 4
  br label %32, !llvm.loop !8

57:                                               ; preds = %32
  br label %58

58:                                               ; preds = %57, %30
  ret void
}

; Function Attrs: nounwind uwtable
define internal ptr @Maj3_ManTruth(ptr noundef %0, i32 noundef %1) #0 {
  %3 = alloca ptr, align 8
  %4 = alloca i32, align 4
  store ptr %0, ptr %3, align 8
  store i32 %1, ptr %4, align 4
  %5 = load ptr, ptr %3, align 8
  %6 = getelementptr inbounds %struct.Maj3_Man_t_, ptr %5, i32 0, i32 5
  %7 = load ptr, ptr %6, align 8
  %8 = load ptr, ptr %3, align 8
  %9 = getelementptr inbounds %struct.Maj3_Man_t_, ptr %8, i32 0, i32 3
  %10 = load i32, ptr %9, align 4
  %11 = load i32, ptr %4, align 4
  %12 = mul nsw i32 %10, %11
  %13 = call ptr @Vec_WrdEntryP(ptr noundef %7, i32 noundef %12)
  ret ptr %13
}

; Function Attrs: nounwind uwtable
define internal i32 @Abc_MaxInt(i32 noundef %0, i32 noundef %1) #0 {
  %3 = alloca i32, align 4
  %4 = alloca i32, align 4
  store i32 %0, ptr %3, align 4
  store i32 %1, ptr %4, align 4
  %5 = load i32, ptr %3, align 4
  %6 = load i32, ptr %4, align 4
  %7 = icmp sgt i32 %5, %6
  br i1 %7, label %8, label %10

8:                                                ; preds = %2
  %9 = load i32, ptr %3, align 4
  br label %12

10:                                               ; preds = %2
  %11 = load i32, ptr %4, align 4
  br label %12

12:                                               ; preds = %10, %8
  %13 = phi i32 [ %9, %8 ], [ %11, %10 ]
  ret i32 %13
}

; Function Attrs: nounwind uwtable
define internal ptr @Vec_WrdStart(i32 noundef %0) #0 {
  %2 = alloca i32, align 4
  %3 = alloca ptr, align 8
  store i32 %0, ptr %2, align 4
  %4 = load i32, ptr %2, align 4
  %5 = call ptr @Vec_WrdAlloc(i32 noundef %4)
  store ptr %5, ptr %3, align 8
  %6 = load i32, ptr %2, align 4
  %7 = load ptr, ptr %3, align 8
  %8 = getelementptr inbounds %struct.Vec_Wrd_t_, ptr %7, i32 0, i32 1
  store i32 %6, ptr %8, align 4
  %9 = load ptr, ptr %3, align 8
  %10 = getelementptr inbounds %struct.Vec_Wrd_t_, ptr %9, i32 0, i32 2
  %11 = load ptr, ptr %10, align 8
  %12 = load i32, ptr %2, align 4
  %13 = sext i32 %12 to i64
  %14 = mul i64 8, %13
  call void @llvm.memset.p0.i64(ptr align 8 %11, i8 0, i64 %14, i1 false)
  %15 = load ptr, ptr %3, align 8
  ret ptr %15
}

; Function Attrs: nounwind uwtable
define ptr @Maj3_ManTruthTables(ptr noundef %0) #0 {
  %2 = alloca ptr, align 8
  %3 = alloca ptr, align 8
  %4 = alloca i32, align 4
  %5 = alloca i32, align 4
  store ptr %0, ptr %2, align 8
  %6 = load ptr, ptr %2, align 8
  %7 = getelementptr inbounds %struct.Maj3_Man_t_, ptr %6, i32 0, i32 3
  %8 = load i32, ptr %7, align 4
  %9 = load ptr, ptr %2, align 8
  %10 = getelementptr inbounds %struct.Maj3_Man_t_, ptr %9, i32 0, i32 2
  %11 = load i32, ptr %10, align 8
  %12 = add nsw i32 %11, 1
  %13 = mul nsw i32 %8, %12
  %14 = call ptr @Vec_WrdStart(i32 noundef %13)
  %15 = load ptr, ptr %2, align 8
  %16 = getelementptr inbounds %struct.Maj3_Man_t_, ptr %15, i32 0, i32 5
  store ptr %14, ptr %16, align 8
  store ptr %14, ptr %3, align 8
  %17 = load ptr, ptr %2, align 8
  %18 = getelementptr inbounds %struct.Maj3_Man_t_, ptr %17, i32 0, i32 0
  %19 = load i32, ptr %18, align 8
  %20 = shl i32 1, %19
  %21 = call i32 @Abc_MaxInt(i32 noundef 64, i32 noundef %20)
  store i32 %21, ptr %5, align 4
  store i32 0, ptr %4, align 4
  br label %22

22:                                               ; preds = %36, %1
  %23 = load i32, ptr %4, align 4
  %24 = load ptr, ptr %2, align 8
  %25 = getelementptr inbounds %struct.Maj3_Man_t_, ptr %24, i32 0, i32 0
  %26 = load i32, ptr %25, align 8
  %27 = icmp slt i32 %23, %26
  br i1 %27, label %28, label %39

28:                                               ; preds = %22
  %29 = load ptr, ptr %2, align 8
  %30 = load i32, ptr %4, align 4
  %31 = call ptr @Maj3_ManTruth(ptr noundef %29, i32 noundef %30)
  %32 = load i32, ptr %4, align 4
  %33 = load ptr, ptr %2, align 8
  %34 = getelementptr inbounds %struct.Maj3_Man_t_, ptr %33, i32 0, i32 0
  %35 = load i32, ptr %34, align 8
  call void @Abc_TtIthVar(ptr noundef %31, i32 noundef %32, i32 noundef %35)
  br label %36

36:                                               ; preds = %28
  %37 = load i32, ptr %4, align 4
  %38 = add nsw i32 %37, 1
  store i32 %38, ptr %4, align 4
  br label %22, !llvm.loop !4

39:                                               ; preds = %22
  store i32 0, ptr %4, align 4
  br label %40

40:                                               ; preds = %59, %39
  %41 = load i32, ptr %4, align 4
  %42 = load i32, ptr %5, align 4
  %43 = icmp slt i32 %41, %42
  br i1 %43, label %44, label %62

44:                                               ; preds = %40
  %45 = load i32, ptr %4, align 4
  %46 = load ptr, ptr %2, align 8
  %47 = getelementptr inbounds %struct.Maj3_Man_t_, ptr %46, i32 0, i32 0
  %48 = load i32, ptr %47, align 8
  %49 = call i32 @Maj3_ManValue(i32 noundef %45, i32 noundef %48)
  %50 = icmp ne i32 %49, 0
  br i1 %50, label %51, label %58

51:                                               ; preds = %44
  %52 = load ptr, ptr %2, align 8
  %53 = load ptr, ptr %2, align 8
  %54 = getelementptr inbounds %struct.Maj3_Man_t_, ptr %53, i32 0, i32 2
  %55 = load i32, ptr %54, align 8
  %56 = call ptr @Maj3_ManTruth(ptr noundef %52, i32 noundef %55)
  %57 = load i32, ptr %4, align 4
  call void @Abc_TtSetBit(ptr noundef %56, i32 noundef %57)
  br label %58

58:                                               ; preds = %51, %44
  br label %59

59:                                               ; preds = %58
  %60 = load i32, ptr %4, align 4
  %61 = add nsw i32 %60, 1
  store i32 %61, ptr %4, align 4
  br label %40, !llvm.loop !6

62:                                               ; preds = %40
  %63 = load ptr, ptr %3, align 8
  ret ptr %63
}