; Function Attrs: nofree nounwind uwtable
define noundef ptr @Maj3_ManTruthTables(ptr noundef captures(none) initializes((24, 32)) %0) local_unnamed_addr #0 {
  %2 = getelementptr inbounds nuw i8, ptr %0, i64 12
  %3 = load i32, ptr %2, align 4
  %4 = getelementptr inbounds nuw i8, ptr %0, i64 8
  %5 = load i32, ptr %4, align 8
  %6 = add nsw i32 %5, 1
  %7 = mul nsw i32 %6, %3
  %8 = tail call noalias dereferenceable_or_null(16) ptr @malloc(i64 noundef 16) #21
  %9 = add i32 %7, -1
  %or.cond.i.i = icmp ult i32 %9, 15
  %spec.store.select.i.i = select i1 %or.cond.i.i, i32 16, i32 %7
  store i32 %spec.store.select.i.i, ptr %8, align 8
  %.not.i.i = icmp eq i32 %spec.store.select.i.i, 0
  br i1 %.not.i.i, label %Vec_WrdStart.exit, label %10

10:                                               ; preds = %1
  %11 = sext i32 %spec.store.select.i.i to i64
  %12 = shl nsw i64 %11, 3
  %13 = tail call noalias ptr @malloc(i64 noundef %12) #21
  br label %Vec_WrdStart.exit

Vec_WrdStart.exit:                                ; preds = %1, %10
  %14 = phi ptr [ %13, %10 ], [ null, %1 ]
  %15 = getelementptr inbounds nuw i8, ptr %8, i64 4
  %16 = getelementptr inbounds nuw i8, ptr %8, i64 8
  store ptr %14, ptr %16, align 8
  store i32 %7, ptr %15, align 4
  %17 = sext i32 %7 to i64
  %18 = shl nsw i64 %17, 3
  tail call void @llvm.memset.p0.i64(ptr align 8 %14, i8 0, i64 %18, i1 false)
  %19 = getelementptr inbounds nuw i8, ptr %0, i64 24
  store ptr %8, ptr %19, align 8
  %20 = load i32, ptr %0, align 8
  %21 = shl nuw i32 1, %20
  %22 = tail call noundef range(i32 64, -2147483648) i32 @llvm.smax.i32(i32 %21, i32 64)
  %23 = icmp sgt i32 %20, 0
  br i1 %23, label %.lr.ph, label %.preheader.preheader

.lr.ph:                                           ; preds = %Vec_WrdStart.exit, %Abc_TtIthVar.exit
  %indvars.iv = phi i64 [ %indvars.iv.next, %Abc_TtIthVar.exit ], [ 0, %Vec_WrdStart.exit ]
  %24 = phi i32 [ %47, %Abc_TtIthVar.exit ], [ %20, %Vec_WrdStart.exit ]
  %.val = load i32, ptr %2, align 4
  %.val19 = load ptr, ptr %19, align 8
  %25 = getelementptr i8, ptr %.val19, i64 8
  %.val19.val = load ptr, ptr %25, align 8
  %26 = trunc nuw nsw i64 %indvars.iv to i32
  %27 = mul nsw i32 %.val, %26
  %28 = sext i32 %27 to i64
  %29 = getelementptr inbounds i64, ptr %.val19.val, i64 %28
  %30 = icmp slt i32 %24, 7
  %31 = add nsw i32 %24, -6
  %32 = shl nuw i32 1, %31
  %33 = select i1 %30, i32 1, i32 %32
  %34 = icmp samesign ult i64 %indvars.iv, 6
  %35 = icmp sgt i32 %33, 0
  br i1 %34, label %.preheader.i, label %.preheader18.i

.preheader18.i:                                   ; preds = %.lr.ph
  br i1 %35, label %.lr.ph.i, label %Abc_TtIthVar.exit

.lr.ph.i:                                         ; preds = %.preheader18.i
  %36 = trunc i64 %indvars.iv to i32
  %37 = add i32 %36, -6
  %38 = shl nuw i32 1, %37
  %wide.trip.count.i = zext nneg i32 %33 to i64
  br label %43

.preheader.i:                                     ; preds = %.lr.ph
  br i1 %35, label %.lr.ph22.i, label %Abc_TtIthVar.exit

.lr.ph22.i:                                       ; preds = %.preheader.i
  %39 = getelementptr inbounds nuw [6 x i64], ptr @s_Truths6, i64 0, i64 %indvars.iv
  %40 = load i64, ptr %39, align 8
  %wide.trip.count28.i = zext nneg i32 %33 to i64
  br label %41

41:                                               ; preds = %41, %.lr.ph22.i
  %indvars.iv25.i = phi i64 [ 0, %.lr.ph22.i ], [ %indvars.iv.next26.i, %41 ]
  %42 = getelementptr inbounds nuw i64, ptr %29, i64 %indvars.iv25.i
  store i64 %40, ptr %42, align 8
  %indvars.iv.next26.i = add nuw nsw i64 %indvars.iv25.i, 1
  %exitcond29.not.i = icmp eq i64 %indvars.iv.next26.i, %wide.trip.count28.i
  br i1 %exitcond29.not.i, label %Abc_TtIthVar.exit, label %41, !llvm.loop !4

43:                                               ; preds = %43, %.lr.ph.i
  %indvars.iv.i = phi i64 [ 0, %.lr.ph.i ], [ %indvars.iv.next.i, %43 ]
  %44 = trunc nuw nsw i64 %indvars.iv.i to i32
  %45 = and i32 %38, %44
  %.not.i = icmp ne i32 %45, 0
  %spec.select.i = sext i1 %.not.i to i64
  %46 = getelementptr inbounds nuw i64, ptr %29, i64 %indvars.iv.i
  store i64 %spec.select.i, ptr %46, align 8
  %indvars.iv.next.i = add nuw nsw i64 %indvars.iv.i, 1
  %exitcond.not.i = icmp eq i64 %indvars.iv.next.i, %wide.trip.count.i
  br i1 %exitcond.not.i, label %Abc_TtIthVar.exit, label %43, !llvm.loop !6

Abc_TtIthVar.exit:                                ; preds = %43, %41, %.preheader18.i, %.preheader.i
  %indvars.iv.next = add nuw nsw i64 %indvars.iv, 1
  %47 = load i32, ptr %0, align 8
  %48 = sext i32 %47 to i64
  %49 = icmp slt i64 %indvars.iv.next, %48
  br i1 %49, label %.lr.ph, label %.preheader.preheader, !llvm.loop !7

.preheader.preheader:                             ; preds = %Abc_TtIthVar.exit, %Vec_WrdStart.exit
  br label %.preheader

.preheader:                                       ; preds = %.preheader.preheader, %71
  %.126 = phi i32 [ %72, %71 ], [ 0, %.preheader.preheader ]
  %50 = load i32, ptr %0, align 8
  %51 = icmp sgt i32 %50, 0
  br i1 %51, label %.lr.ph.i22, label %Maj3_ManValue.exit

.lr.ph.i22:                                       ; preds = %.preheader, %.lr.ph.i22
  %.011.i = phi i32 [ %54, %.lr.ph.i22 ], [ 0, %.preheader ]
  %.0810.i = phi i32 [ %55, %.lr.ph.i22 ], [ 0, %.preheader ]
  %52 = lshr i32 %.126, %.0810.i
  %53 = and i32 %52, 1
  %54 = add nuw nsw i32 %53, %.011.i
  %55 = add nuw nsw i32 %.0810.i, 1
  %exitcond.not.i23 = icmp eq i32 %55, %50
  br i1 %exitcond.not.i23, label %Maj3_ManValue.exit, label %.lr.ph.i22, !llvm.loop !8

Maj3_ManValue.exit:                               ; preds = %.lr.ph.i22, %.preheader
  %.0.lcssa.i = phi i32 [ 0, %.preheader ], [ %54, %.lr.ph.i22 ]
  %56 = sdiv i32 %50, 2
  %.not = icmp sgt i32 %.0.lcssa.i, %56
  br i1 %.not, label %57, label %71

57:                                               ; preds = %Maj3_ManValue.exit
  %58 = load i32, ptr %4, align 8
  %.val20 = load i32, ptr %2, align 4
  %.val21 = load ptr, ptr %19, align 8
  %59 = getelementptr i8, ptr %.val21, i64 8
  %.val21.val = load ptr, ptr %59, align 8
  %60 = mul nsw i32 %.val20, %58
  %61 = sext i32 %60 to i64
  %62 = getelementptr inbounds i64, ptr %.val21.val, i64 %61
  %63 = and i32 %.126, 63
  %64 = zext nneg i32 %63 to i64
  %65 = shl nuw i64 1, %64
  %66 = lshr i32 %.126, 6
  %67 = zext nneg i32 %66 to i64
  %68 = getelementptr inbounds nuw i64, ptr %62, i64 %67
  %69 = load i64, ptr %68, align 8
  %70 = or i64 %69, %65
  store i64 %70, ptr %68, align 8
  br label %71

71:                                               ; preds = %Maj3_ManValue.exit, %57
  %72 = add nuw nsw i32 %.126, 1
  %exitcond.not = icmp eq i32 %72, %22
  br i1 %exitcond.not, label %73, label %.preheader, !llvm.loop !9

73:                                               ; preds = %71
  ret ptr %8
}